; Function Attrs: mustprogress nounwind uwtable
define hidden void @_ZN14MacroAssembler7call_VME8RegisterS0_PhS0_S0_b(ptr noundef nonnull align 8 dereferenceable(40) %0, i32 %1, i32 %2, ptr noundef %3, i32 %4, i32 %5, i1 noundef zeroext %6) local_unnamed_addr #0 align 2 {
  %.not5.i = icmp eq i32 %5, 2
  br i1 %.not5.i, label %_ZL9pass_arg2P14MacroAssembler8Register.exit, label %8

8:                                                ; preds = %7
  tail call void @_ZN9Assembler3movE8RegisterS0_(ptr noundef nonnull align 8 dereferenceable(40) %0, i32 2, i32 %5) #18
  br label %_ZL9pass_arg2P14MacroAssembler8Register.exit

_ZL9pass_arg2P14MacroAssembler8Register.exit:     ; preds = %7, %8
  %.not5.i12 = icmp eq i32 %4, 6
  br i1 %.not5.i12, label %_ZL9pass_arg1P14MacroAssembler8Register.exit, label %9

9:                                                ; preds = %_ZL9pass_arg2P14MacroAssembler8Register.exit
  tail call void @_ZN9Assembler3movE8RegisterS0_(ptr noundef nonnull align 8 dereferenceable(40) %0, i32 6, i32 %4) #18
  br label %_ZL9pass_arg1P14MacroAssembler8Register.exit

_ZL9pass_arg1P14MacroAssembler8Register.exit:     ; preds = %_ZL9pass_arg2P14MacroAssembler8Register.exit, %9
  %10 = load ptr, ptr %0, align 8
  %11 = getelementptr inbounds i8, ptr %10, i64 16
  %12 = load ptr, ptr %11, align 8
  tail call void %12(ptr noundef nonnull align 8 dereferenceable(40) %0, i32 %1, i32 15, i32 %2, ptr noundef %3, i32 noundef 2, i1 noundef zeroext %6) #18
  ret void
}